; Function Attrs: nounwind uwtable
define dso_local range(i32 -1, 2) i32 @set_config_option(ptr noundef %0, ptr noundef %1, i32 noundef %2, i32 noundef %3, i32 noundef %4, i1 noundef zeroext %5, i32 noundef %6, i1 noundef zeroext %7) local_unnamed_addr #0 {
  %9 = icmp ugt i32 %3, 10
  %10 = icmp eq i32 %3, 9
  %or.cond = or i1 %9, %10
  br i1 %or.cond, label %11, label %13

11:                                               ; preds = %8
  %12 = tail call i32 @GetUserId() #29
  br label %13

13:                                               ; preds = %8, %11
  %.0 = phi i32 [ %12, %11 ], [ 10, %8 ]
  %14 = tail call i32 @set_config_with_handle(ptr noundef %0, ptr noundef null, ptr noundef %1, i32 noundef %2, i32 noundef %3, i32 noundef %.0, i32 noundef %4, i1 noundef zeroext %5, i32 noundef %6, i1 noundef zeroext %7)
  ret i32 %14
}